target datalayout = "e-m:e-p270:32:32-p271:32:32-p272:64:64-i64:64-i128:128-f80:128-n8:16:32:64-S128"
target triple = "x86_64-pc-linux-gnu"

%struct.stbtt_fontinfo = type { ptr, ptr, i32, i32, i32, i32, i32, i32, i32, i32, i32, i32 }
%struct.stbtt_pack_context = type { ptr, ptr, i32, i32, i32, i32, i32, i32, ptr, ptr }
%struct.stbrp_context = type { i32, i32, i32, i32, i32 }
%struct.stbtt_pack_range = type { float, i32, ptr, i32, ptr, i8, i8 }
%struct.stbrp_rect = type { i32, i32, i32, i32, i32, i32 }
%struct.stbtt_packedchar = type { i16, i16, i16, i16, float, float, float, float, float }

; Function Attrs: mustprogress nounwind uwtable
define internal void @_ZL16stbrp_pack_rectsP13stbrp_contextP10stbrp_recti(ptr noundef %0, ptr noundef %1, i32 noundef %2) #1 {
  %4 = alloca ptr, align 8
  %5 = alloca ptr, align 8
  %6 = alloca i32, align 4
  %7 = alloca i32, align 4
  store ptr %0, ptr %4, align 8
  store ptr %1, ptr %5, align 8
  store i32 %2, ptr %6, align 4
  store i32 0, ptr %7, align 4
  br label %8

8:                                                ; preds = %111, %3
  %9 = load i32, ptr %7, align 4
  %10 = load i32, ptr %6, align 4
  %11 = icmp slt i32 %9, %10
  br i1 %11, label %12, label %114

12:                                               ; preds = %8
  %13 = load ptr, ptr %4, align 8
  %14 = getelementptr inbounds %struct.stbrp_context, ptr %13, i32 0, i32 2
  %15 = load i32, ptr %14, align 4
  %16 = load ptr, ptr %5, align 8
  %17 = load i32, ptr %7, align 4
  %18 = sext i32 %17 to i64
  %19 = getelementptr inbounds %struct.stbrp_rect, ptr %16, i64 %18
  %20 = getelementptr inbounds %struct.stbrp_rect, ptr %19, i32 0, i32 3
  %21 = load i32, ptr %20, align 4
  %22 = add nsw i32 %15, %21
  %23 = load ptr, ptr %4, align 8
  %24 = getelementptr inbounds %struct.stbrp_context, ptr %23, i32 0, i32 0
  %25 = load i32, ptr %24, align 4
  %26 = icmp sgt i32 %22, %25
  br i1 %26, label %27, label %35

27:                                               ; preds = %12
  %28 = load ptr, ptr %4, align 8
  %29 = getelementptr inbounds %struct.stbrp_context, ptr %28, i32 0, i32 2
  store i32 0, ptr %29, align 4
  %30 = load ptr, ptr %4, align 8
  %31 = getelementptr inbounds %struct.stbrp_context, ptr %30, i32 0, i32 4
  %32 = load i32, ptr %31, align 4
  %33 = load ptr, ptr %4, align 8
  %34 = getelementptr inbounds %struct.stbrp_context, ptr %33, i32 0, i32 3
  store i32 %32, ptr %34, align 4
  br label %35

35:                                               ; preds = %27, %12
  %36 = load ptr, ptr %4, align 8
  %37 = getelementptr inbounds %struct.stbrp_context, ptr %36, i32 0, i32 3
  %38 = load i32, ptr %37, align 4
  %39 = load ptr, ptr %5, align 8
  %40 = load i32, ptr %7, align 4
  %41 = sext i32 %40 to i64
  %42 = getelementptr inbounds %struct.stbrp_rect, ptr %39, i64 %41
  %43 = getelementptr inbounds %struct.stbrp_rect, ptr %42, i32 0, i32 4
  %44 = load i32, ptr %43, align 4
  %45 = add nsw i32 %38, %44
  %46 = load ptr, ptr %4, align 8
  %47 = getelementptr inbounds %struct.stbrp_context, ptr %46, i32 0, i32 1
  %48 = load i32, ptr %47, align 4
  %49 = icmp sgt i32 %45, %48
  br i1 %49, label %50, label %51

50:                                               ; preds = %35
  br label %114

51:                                               ; preds = %35
  %52 = load ptr, ptr %4, align 8
  %53 = getelementptr inbounds %struct.stbrp_context, ptr %52, i32 0, i32 2
  %54 = load i32, ptr %53, align 4
  %55 = load ptr, ptr %5, align 8
  %56 = load i32, ptr %7, align 4
  %57 = sext i32 %56 to i64
  %58 = getelementptr inbounds %struct.stbrp_rect, ptr %55, i64 %57
  %59 = getelementptr inbounds %struct.stbrp_rect, ptr %58, i32 0, i32 0
  store i32 %54, ptr %59, align 4
  %60 = load ptr, ptr %4, align 8
  %61 = getelementptr inbounds %struct.stbrp_context, ptr %60, i32 0, i32 3
  %62 = load i32, ptr %61, align 4
  %63 = load ptr, ptr %5, align 8
  %64 = load i32, ptr %7, align 4
  %65 = sext i32 %64 to i64
  %66 = getelementptr inbounds %struct.stbrp_rect, ptr %63, i64 %65
  %67 = getelementptr inbounds %struct.stbrp_rect, ptr %66, i32 0, i32 1
  store i32 %62, ptr %67, align 4
  %68 = load ptr, ptr %5, align 8
  %69 = load i32, ptr %7, align 4
  %70 = sext i32 %69 to i64
  %71 = getelementptr inbounds %struct.stbrp_rect, ptr %68, i64 %70
  %72 = getelementptr inbounds %struct.stbrp_rect, ptr %71, i32 0, i32 5
  store i32 1, ptr %72, align 4
  %73 = load ptr, ptr %5, align 8
  %74 = load i32, ptr %7, align 4
  %75 = sext i32 %74 to i64
  %76 = getelementptr inbounds %struct.stbrp_rect, ptr %73, i64 %75
  %77 = getelementptr inbounds %struct.stbrp_rect, ptr %76, i32 0, i32 3
  %78 = load i32, ptr %77, align 4
  %79 = load ptr, ptr %4, align 8
  %80 = getelementptr inbounds %struct.stbrp_context, ptr %79, i32 0, i32 2
  %81 = load i32, ptr %80, align 4
  %82 = add nsw i32 %81, %78
  store i32 %82, ptr %80, align 4
  %83 = load ptr, ptr %4, align 8
  %84 = getelementptr inbounds %struct.stbrp_context, ptr %83, i32 0, i32 3
  %85 = load i32, ptr %84, align 4
  %86 = load ptr, ptr %5, align 8
  %87 = load i32, ptr %7, align 4
  %88 = sext i32 %87 to i64
  %89 = getelementptr inbounds %struct.stbrp_rect, ptr %86, i64 %88
  %90 = getelementptr inbounds %struct.stbrp_rect, ptr %89, i32 0, i32 4
  %91 = load i32, ptr %90, align 4
  %92 = add nsw i32 %85, %91
  %93 = load ptr, ptr %4, align 8
  %94 = getelementptr inbounds %struct.stbrp_context, ptr %93, i32 0, i32 4
  %95 = load i32, ptr %94, align 4
  %96 = icmp sgt i32 %92, %95
  br i1 %96, label %97, label %110

97:                                               ; preds = %51
  %98 = load ptr, ptr %4, align 8
  %99 = getelementptr inbounds %struct.stbrp_context, ptr %98, i32 0, i32 3
  %100 = load i32, ptr %99, align 4
  %101 = load ptr, ptr %5, align 8
  %102 = load i32, ptr %7, align 4
  %103 = sext i32 %102 to i64
  %104 = getelementptr inbounds %struct.stbrp_rect, ptr %101, i64 %103
  %105 = getelementptr inbounds %struct.stbrp_rect, ptr %104, i32 0, i32 4
  %106 = load i32, ptr %105, align 4
  %107 = add nsw i32 %100, %106
  %108 = load ptr, ptr %4, align 8
  %109 = getelementptr inbounds %struct.stbrp_context, ptr %108, i32 0, i32 4
  store i32 %107, ptr %109, align 4
  br label %110

110:                                              ; preds = %97, %51
  br label %111

111:                                              ; preds = %110
  %112 = load i32, ptr %7, align 4
  %113 = add nsw i32 %112, 1
  store i32 %113, ptr %7, align 4
  br label %8, !llvm.loop !42

114:                                              ; preds = %50, %8
  br label %115

115:                                              ; preds = %125, %114
  %116 = load i32, ptr %7, align 4
  %117 = load i32, ptr %6, align 4
  %118 = icmp slt i32 %116, %117
  br i1 %118, label %119, label %128

119:                                              ; preds = %115
  %120 = load ptr, ptr %5, align 8
  %121 = load i32, ptr %7, align 4
  %122 = sext i32 %121 to i64
  %123 = getelementptr inbounds %struct.stbrp_rect, ptr %120, i64 %122
  %124 = getelementptr inbounds %struct.stbrp_rect, ptr %123, i32 0, i32 5
  store i32 0, ptr %124, align 4
  br label %125

125:                                              ; preds = %119
  %126 = load i32, ptr %7, align 4
  %127 = add nsw i32 %126, 1
  store i32 %127, ptr %7, align 4
  br label %115, !llvm.loop !43

128:                                              ; preds = %115
  ret void
}

; Function Attrs: mustprogress nounwind uwtable
define dso_local void @_Z9imguifreePvS_(ptr noundef %0, ptr noundef %1) #1 {
  %3 = alloca ptr, align 8
  %4 = alloca ptr, align 8
  store ptr %0, ptr %3, align 8
  store ptr %1, ptr %4, align 8
  %5 = load ptr, ptr %3, align 8
  call void @free(ptr noundef %5) #10
  ret void
}

; Function Attrs: mustprogress uwtable
define dso_local void @stbtt_PackFontRangesPackRects(ptr noundef %0, ptr noundef %1, i32 noundef %2) #0 {
  %4 = alloca ptr, align 8
  %5 = alloca ptr, align 8
  %6 = alloca i32, align 4
  store ptr %0, ptr %4, align 8
  store ptr %1, ptr %5, align 8
  store i32 %2, ptr %6, align 4
  %7 = load ptr, ptr %4, align 8
  %8 = getelementptr inbounds %struct.stbtt_pack_context, ptr %7, i32 0, i32 1
  %9 = load ptr, ptr %8, align 8
  %10 = load ptr, ptr %5, align 8
  %11 = load i32, ptr %6, align 4
  call void @_ZL16stbrp_pack_rectsP13stbrp_contextP10stbrp_recti(ptr noundef %9, ptr noundef %10, i32 noundef %11)
  ret void
}

; Function Attrs: mustprogress nounwind uwtable
define dso_local noundef ptr @_Z11imguimallocmPv(i64 noundef %0, ptr noundef %1) #1 {
  %3 = alloca i64, align 8
  %4 = alloca ptr, align 8
  store i64 %0, ptr %3, align 8
  store ptr %1, ptr %4, align 8
  %5 = load i64, ptr %3, align 8
  %6 = call noalias ptr @malloc(i64 noundef %5) #9
  ret ptr %6
}

; Function Attrs: mustprogress uwtable
define dso_local i32 @stbtt_PackFontRanges(ptr noundef %0, ptr noundef %1, i32 noundef %2, ptr noundef %3, i32 noundef %4) #0 {
  %6 = alloca i32, align 4
  %7 = alloca ptr, align 8
  %8 = alloca ptr, align 8
  %9 = alloca i32, align 4
  %10 = alloca ptr, align 8
  %11 = alloca i32, align 4
  %12 = alloca %struct.stbtt_fontinfo, align 8
  %13 = alloca i32, align 4
  %14 = alloca i32, align 4
  %15 = alloca i32, align 4
  %16 = alloca i32, align 4
  %17 = alloca ptr, align 8
  store ptr %0, ptr %7, align 8
  store ptr %1, ptr %8, align 8
  store i32 %2, ptr %9, align 4
  store ptr %3, ptr %10, align 8
  store i32 %4, ptr %11, align 4
  store i32 1, ptr %16, align 4
  store i32 0, ptr %13, align 4
  br label %18

18:                                               ; preds = %77, %5
  %19 = load i32, ptr %13, align 4
  %20 = load i32, ptr %11, align 4
  %21 = icmp slt i32 %19, %20
  br i1 %21, label %22, label %80

22:                                               ; preds = %18
  store i32 0, ptr %14, align 4
  br label %23

23:                                               ; preds = %73, %22
  %24 = load i32, ptr %14, align 4
  %25 = load ptr, ptr %10, align 8
  %26 = load i32, ptr %13, align 4
  %27 = sext i32 %26 to i64
  %28 = getelementptr inbounds %struct.stbtt_pack_range, ptr %25, i64 %27
  %29 = getelementptr inbounds %struct.stbtt_pack_range, ptr %28, i32 0, i32 3
  %30 = load i32, ptr %29, align 8
  %31 = icmp slt i32 %24, %30
  br i1 %31, label %32, label %76

32:                                               ; preds = %23
  %33 = load ptr, ptr %10, align 8
  %34 = load i32, ptr %13, align 4
  %35 = sext i32 %34 to i64
  %36 = getelementptr inbounds %struct.stbtt_pack_range, ptr %33, i64 %35
  %37 = getelementptr inbounds %struct.stbtt_pack_range, ptr %36, i32 0, i32 4
  %38 = load ptr, ptr %37, align 8
  %39 = load i32, ptr %14, align 4
  %40 = sext i32 %39 to i64
  %41 = getelementptr inbounds %struct.stbtt_packedchar, ptr %38, i64 %40
  %42 = getelementptr inbounds %struct.stbtt_packedchar, ptr %41, i32 0, i32 3
  store i16 0, ptr %42, align 2
  %43 = load ptr, ptr %10, align 8
  %44 = load i32, ptr %13, align 4
  %45 = sext i32 %44 to i64
  %46 = getelementptr inbounds %struct.stbtt_pack_range, ptr %43, i64 %45
  %47 = getelementptr inbounds %struct.stbtt_pack_range, ptr %46, i32 0, i32 4
  %48 = load ptr, ptr %47, align 8
  %49 = load i32, ptr %14, align 4
  %50 = sext i32 %49 to i64
  %51 = getelementptr inbounds %struct.stbtt_packedchar, ptr %48, i64 %50
  %52 = getelementptr inbounds %struct.stbtt_packedchar, ptr %51, i32 0, i32 2
  store i16 0, ptr %52, align 4
  %53 = load ptr, ptr %10, align 8
  %54 = load i32, ptr %13, align 4
  %55 = sext i32 %54 to i64
  %56 = getelementptr inbounds %struct.stbtt_pack_range, ptr %53, i64 %55
  %57 = getelementptr inbounds %struct.stbtt_pack_range, ptr %56, i32 0, i32 4
  %58 = load ptr, ptr %57, align 8
  %59 = load i32, ptr %14, align 4
  %60 = sext i32 %59 to i64
  %61 = getelementptr inbounds %struct.stbtt_packedchar, ptr %58, i64 %60
  %62 = getelementptr inbounds %struct.stbtt_packedchar, ptr %61, i32 0, i32 1
  store i16 0, ptr %62, align 2
  %63 = load ptr, ptr %10, align 8
  %64 = load i32, ptr %13, align 4
  %65 = sext i32 %64 to i64
  %66 = getelementptr inbounds %struct.stbtt_pack_range, ptr %63, i64 %65
  %67 = getelementptr inbounds %struct.stbtt_pack_range, ptr %66, i32 0, i32 4
  %68 = load ptr, ptr %67, align 8
  %69 = load i32, ptr %14, align 4
  %70 = sext i32 %69 to i64
  %71 = getelementptr inbounds %struct.stbtt_packedchar, ptr %68, i64 %70
  %72 = getelementptr inbounds %struct.stbtt_packedchar, ptr %71, i32 0, i32 0
  store i16 0, ptr %72, align 4
  br label %73

73:                                               ; preds = %32
  %74 = load i32, ptr %14, align 4
  %75 = add nsw i32 %74, 1
  store i32 %75, ptr %14, align 4
  br label %23, !llvm.loop !44

76:                                               ; preds = %23
  br label %77

77:                                               ; preds = %76
  %78 = load i32, ptr %13, align 4
  %79 = add nsw i32 %78, 1
  store i32 %79, ptr %13, align 4
  br label %18, !llvm.loop !45

80:                                               ; preds = %18
  store i32 0, ptr %15, align 4
  store i32 0, ptr %13, align 4
  br label %81

81:                                               ; preds = %94, %80
  %82 = load i32, ptr %13, align 4
  %83 = load i32, ptr %11, align 4
  %84 = icmp slt i32 %82, %83
  br i1 %84, label %85, label %97

85:                                               ; preds = %81
  %86 = load ptr, ptr %10, align 8
  %87 = load i32, ptr %13, align 4
  %88 = sext i32 %87 to i64
  %89 = getelementptr inbounds %struct.stbtt_pack_range, ptr %86, i64 %88
  %90 = getelementptr inbounds %struct.stbtt_pack_range, ptr %89, i32 0, i32 3
  %91 = load i32, ptr %90, align 8
  %92 = load i32, ptr %15, align 4
  %93 = add nsw i32 %92, %91
  store i32 %93, ptr %15, align 4
  br label %94

94:                                               ; preds = %85
  %95 = load i32, ptr %13, align 4
  %96 = add nsw i32 %95, 1
  store i32 %96, ptr %13, align 4
  br label %81, !llvm.loop !46

97:                                               ; preds = %81
  %98 = load i32, ptr %15, align 4
  %99 = sext i32 %98 to i64
  %100 = mul i64 24, %99
  %101 = load ptr, ptr %7, align 8
  %102 = getelementptr inbounds %struct.stbtt_pack_context, ptr %101, i32 0, i32 0
  %103 = load ptr, ptr %102, align 8
  %104 = call noundef ptr @_Z11imguimallocmPv(i64 noundef %100, ptr noundef %103)
  store ptr %104, ptr %17, align 8
  %105 = load ptr, ptr %17, align 8
  %106 = icmp eq ptr %105, null
  br i1 %106, label %107, label %108

107:                                              ; preds = %97
  store i32 0, ptr %6, align 4
  br label %136

108:                                              ; preds = %97
  %109 = load ptr, ptr %7, align 8
  %110 = getelementptr inbounds %struct.stbtt_pack_context, ptr %109, i32 0, i32 0
  %111 = load ptr, ptr %110, align 8
  %112 = getelementptr inbounds %struct.stbtt_fontinfo, ptr %12, i32 0, i32 0
  store ptr %111, ptr %112, align 8
  %113 = load ptr, ptr %8, align 8
  %114 = load ptr, ptr %8, align 8
  %115 = load i32, ptr %9, align 4
  %116 = call i32 @stbtt_GetFontOffsetForIndex(ptr noundef %114, i32 noundef %115)
  %117 = call i32 @stbtt_InitFont(ptr noundef %12, ptr noundef %113, i32 noundef %116)
  %118 = load ptr, ptr %7, align 8
  %119 = load ptr, ptr %10, align 8
  %120 = load i32, ptr %11, align 4
  %121 = load ptr, ptr %17, align 8
  %122 = call i32 @stbtt_PackFontRangesGatherRects(ptr noundef %118, ptr noundef %12, ptr noundef %119, i32 noundef %120, ptr noundef %121)
  store i32 %122, ptr %15, align 4
  %123 = load ptr, ptr %7, align 8
  %124 = load ptr, ptr %17, align 8
  %125 = load i32, ptr %15, align 4
  call void @stbtt_PackFontRangesPackRects(ptr noundef %123, ptr noundef %124, i32 noundef %125)
  %126 = load ptr, ptr %7, align 8
  %127 = load ptr, ptr %10, align 8
  %128 = load i32, ptr %11, align 4
  %129 = load ptr, ptr %17, align 8
  %130 = call i32 @stbtt_PackFontRangesRenderIntoRects(ptr noundef %126, ptr noundef %12, ptr noundef %127, i32 noundef %128, ptr noundef %129)
  store i32 %130, ptr %16, align 4
  %131 = load ptr, ptr %17, align 8
  %132 = load ptr, ptr %7, align 8
  %133 = getelementptr inbounds %struct.stbtt_pack_context, ptr %132, i32 0, i32 0
  %134 = load ptr, ptr %133, align 8
  call void @_Z9imguifreePvS_(ptr noundef %131, ptr noundef %134)
  %135 = load i32, ptr %16, align 4
  store i32 %135, ptr %6, align 4
  br label %136

136:                                              ; preds = %108, %107
  %137 = load i32, ptr %6, align 4
  ret i32 %137
}