; Function Attrs: mustprogress nounwind uwtable
define dso_local range(i32 0, 2) i32 @stbtt_PackFontRanges(ptr noundef captures(none) %0, ptr noundef %1, i32 noundef %2, ptr noundef captures(none) %3, i32 noundef %4) local_unnamed_addr #3 {
  %6 = alloca %struct.stbtt_fontinfo, align 8
  %7 = icmp sgt i32 %4, 0
  br i1 %7, label %.preheader52.preheader, label %._crit_edge59

.preheader52.preheader:                           ; preds = %5
  %wide.trip.count = zext nneg i32 %4 to i64
  br label %.preheader52

.preheader52:                                     ; preds = %.preheader52.preheader, %._crit_edge
  %indvars.iv63 = phi i64 [ 0, %.preheader52.preheader ], [ %indvars.iv.next64, %._crit_edge ]
  %8 = getelementptr inbounds nuw %struct.stbtt_pack_range, ptr %3, i64 %indvars.iv63
  %9 = getelementptr inbounds nuw i8, ptr %8, i64 16
  %10 = load i32, ptr %9, align 8
  %11 = icmp sgt i32 %10, 0
  br i1 %11, label %.lr.ph, label %._crit_edge

.lr.ph:                                           ; preds = %.preheader52
  %12 = getelementptr inbounds nuw i8, ptr %8, i64 24
  br label %13

.lr.ph58.preheader:                               ; preds = %._crit_edge
  %wide.trip.count69 = zext nneg i32 %4 to i64
  br label %.lr.ph58

13:                                               ; preds = %.lr.ph, %13
  %indvars.iv = phi i64 [ 0, %.lr.ph ], [ %indvars.iv.next, %13 ]
  %14 = load ptr, ptr %12, align 8
  %15 = getelementptr inbounds nuw %struct.stbtt_packedchar, ptr %14, i64 %indvars.iv, i32 3
  store i16 0, ptr %15, align 2
  %16 = load ptr, ptr %12, align 8
  %17 = getelementptr inbounds nuw %struct.stbtt_packedchar, ptr %16, i64 %indvars.iv, i32 2
  store i16 0, ptr %17, align 4
  %18 = load ptr, ptr %12, align 8
  %19 = getelementptr inbounds nuw %struct.stbtt_packedchar, ptr %18, i64 %indvars.iv, i32 1
  store i16 0, ptr %19, align 2
  %20 = load ptr, ptr %12, align 8
  %21 = getelementptr inbounds nuw %struct.stbtt_packedchar, ptr %20, i64 %indvars.iv
  store i16 0, ptr %21, align 4
  %indvars.iv.next = add nuw nsw i64 %indvars.iv, 1
  %22 = load i32, ptr %9, align 8
  %23 = sext i32 %22 to i64
  %24 = icmp slt i64 %indvars.iv.next, %23
  br i1 %24, label %13, label %._crit_edge, !llvm.loop !55

._crit_edge:                                      ; preds = %13, %.preheader52
  %indvars.iv.next64 = add nuw nsw i64 %indvars.iv63, 1
  %exitcond.not = icmp eq i64 %indvars.iv.next64, %wide.trip.count
  br i1 %exitcond.not, label %.lr.ph58.preheader, label %.preheader52, !llvm.loop !56

.lr.ph58:                                         ; preds = %.lr.ph58.preheader, %.lr.ph58
  %indvars.iv66 = phi i64 [ 0, %.lr.ph58.preheader ], [ %indvars.iv.next67, %.lr.ph58 ]
  %.04657 = phi i32 [ 0, %.lr.ph58.preheader ], [ %27, %.lr.ph58 ]
  %25 = getelementptr inbounds nuw %struct.stbtt_pack_range, ptr %3, i64 %indvars.iv66, i32 3
  %26 = load i32, ptr %25, align 8
  %27 = add nsw i32 %26, %.04657
  %indvars.iv.next67 = add nuw nsw i64 %indvars.iv66, 1
  %exitcond70.not = icmp eq i64 %indvars.iv.next67, %wide.trip.count69
  br i1 %exitcond70.not, label %._crit_edge59.loopexit, label %.lr.ph58, !llvm.loop !57

._crit_edge59.loopexit:                           ; preds = %.lr.ph58
  %28 = sext i32 %27 to i64
  %29 = mul nsw i64 %28, 24
  br label %._crit_edge59

._crit_edge59:                                    ; preds = %5, %._crit_edge59.loopexit
  %.046.lcssa = phi i64 [ %29, %._crit_edge59.loopexit ], [ 0, %5 ]
  %30 = tail call noalias noundef ptr @malloc(i64 noundef %.046.lcssa) #27
  %31 = icmp eq ptr %30, null
  br i1 %31, label %74, label %32

32:                                               ; preds = %._crit_edge59
  %33 = load ptr, ptr %0, align 8
  store ptr %33, ptr %6, align 8
  %34 = tail call i32 @stbtt_GetFontOffsetForIndex(ptr noundef %1, i32 noundef %2)
  %35 = call i32 @stbtt_InitFont(ptr noundef nonnull %6, ptr noundef %1, i32 noundef %34)
  %36 = call i32 @stbtt_PackFontRangesGatherRects(ptr noundef nonnull %0, ptr noundef nonnull %6, ptr noundef %3, i32 noundef %4, ptr noundef nonnull %30)
  %37 = icmp sgt i32 %36, 0
  br i1 %37, label %.lr.ph.i.i, label %._crit_edge.i.i

.lr.ph.i.i:                                       ; preds = %32
  %38 = getelementptr inbounds nuw i8, ptr %0, i64 8
  %39 = load ptr, ptr %38, align 8
  %40 = getelementptr inbounds nuw i8, ptr %39, i64 8
  %41 = getelementptr inbounds nuw i8, ptr %39, i64 16
  %42 = getelementptr inbounds nuw i8, ptr %39, i64 12
  %43 = getelementptr inbounds nuw i8, ptr %39, i64 4
  %wide.trip.count.i.i = zext nneg i32 %36 to i64
  %.pre.i.i = load i32, ptr %40, align 4
  %.pre = load i32, ptr %39, align 4
  br label %44

44:                                               ; preds = %68, %.lr.ph.i.i
  %45 = phi i32 [ %.pre.i.i, %.lr.ph.i.i ], [ %64, %68 ]
  %indvars.iv.i.i = phi i64 [ 0, %.lr.ph.i.i ], [ %indvars.iv.next.i.i, %68 ]
  %46 = getelementptr inbounds nuw %struct.stbrp_rect, ptr %30, i64 %indvars.iv.i.i
  %47 = getelementptr inbounds nuw i8, ptr %46, i64 12
  %48 = load i32, ptr %47, align 4
  %49 = add nsw i32 %48, %45
  %50 = icmp sgt i32 %49, %.pre
  br i1 %50, label %51, label %._crit_edge49.i.i

._crit_edge49.i.i:                                ; preds = %44
  %.pre50.i.i = load i32, ptr %42, align 4
  br label %53

51:                                               ; preds = %44
  store i32 0, ptr %40, align 4
  %52 = load i32, ptr %41, align 4
  store i32 %52, ptr %42, align 4
  br label %53

53:                                               ; preds = %51, %._crit_edge49.i.i
  %54 = phi i32 [ %45, %._crit_edge49.i.i ], [ 0, %51 ]
  %55 = phi i32 [ %.pre50.i.i, %._crit_edge49.i.i ], [ %52, %51 ]
  %56 = getelementptr inbounds nuw i8, ptr %46, i64 16
  %57 = load i32, ptr %56, align 4
  %58 = add nsw i32 %57, %55
  %59 = load i32, ptr %43, align 4
  %60 = icmp sgt i32 %58, %59
  br i1 %60, label %._crit_edge.loopexit.i.i, label %61

61:                                               ; preds = %53
  store i32 %54, ptr %46, align 4
  %62 = getelementptr inbounds nuw i8, ptr %46, i64 4
  store i32 %55, ptr %62, align 4
  %63 = getelementptr inbounds nuw i8, ptr %46, i64 20
  store i32 1, ptr %63, align 4
  %64 = add nsw i32 %54, %48
  store i32 %64, ptr %40, align 4
  %65 = load i32, ptr %41, align 4
  %66 = icmp sgt i32 %58, %65
  br i1 %66, label %67, label %68

67:                                               ; preds = %61
  store i32 %58, ptr %41, align 4
  br label %68

68:                                               ; preds = %67, %61
  %indvars.iv.next.i.i = add nuw nsw i64 %indvars.iv.i.i, 1
  %exitcond.not.i.i = icmp eq i64 %indvars.iv.next.i.i, %wide.trip.count.i.i
  br i1 %exitcond.not.i.i, label %stbtt_PackFontRangesPackRects.exit, label %44, !llvm.loop !53

._crit_edge.loopexit.i.i:                         ; preds = %53
  %69 = trunc nuw nsw i64 %indvars.iv.i.i to i32
  br label %._crit_edge.i.i

._crit_edge.i.i:                                  ; preds = %._crit_edge.loopexit.i.i, %32
  %.0.lcssa.i.i = phi i32 [ 0, %32 ], [ %69, %._crit_edge.loopexit.i.i ]
  %70 = icmp slt i32 %.0.lcssa.i.i, %36
  br i1 %70, label %.lr.ph43.preheader.i.i, label %stbtt_PackFontRangesPackRects.exit

.lr.ph43.preheader.i.i:                           ; preds = %._crit_edge.i.i
  %71 = zext i32 %.0.lcssa.i.i to i64
  %wide.trip.count.i = zext i32 %36 to i64
  br label %.lr.ph43.i.i

.lr.ph43.i.i:                                     ; preds = %.lr.ph43.i.i, %.lr.ph43.preheader.i.i
  %indvars.iv46.i.i = phi i64 [ %71, %.lr.ph43.preheader.i.i ], [ %indvars.iv.next47.i.i, %.lr.ph43.i.i ]
  %72 = getelementptr inbounds nuw %struct.stbrp_rect, ptr %30, i64 %indvars.iv46.i.i, i32 5
  store i32 0, ptr %72, align 4
  %indvars.iv.next47.i.i = add nuw nsw i64 %indvars.iv46.i.i, 1
  %exitcond.not.i = icmp eq i64 %indvars.iv.next47.i.i, %wide.trip.count.i
  br i1 %exitcond.not.i, label %stbtt_PackFontRangesPackRects.exit, label %.lr.ph43.i.i, !llvm.loop !54

stbtt_PackFontRangesPackRects.exit:               ; preds = %68, %.lr.ph43.i.i, %._crit_edge.i.i
  %73 = call i32 @stbtt_PackFontRangesRenderIntoRects(ptr noundef nonnull %0, ptr noundef nonnull %6, ptr noundef %3, i32 noundef %4, ptr noundef nonnull %30)
  tail call void @free(ptr noundef nonnull %30) #28
  br label %74

74:                                               ; preds = %._crit_edge59, %stbtt_PackFontRangesPackRects.exit
  %.0 = phi i32 [ %73, %stbtt_PackFontRangesPackRects.exit ], [ 0, %._crit_edge59 ]
  ret i32 %.0
}